target datalayout = "e-m:e-p270:32:32-p271:32:32-p272:64:64-i64:64-f80:128-n8:16:32:64-S128"
target triple = "x86_64-pc-linux-gnu"

@.str = private unnamed_addr constant [3 x i8] c"%d\00", align 1
@.str.1 = private unnamed_addr constant [12 x i8] c"%lf %lf %lf\00", align 1
@.str.2 = private unnamed_addr constant [19 x i8] c"x1=%.5lf;x2=%.5lf\0A\00", align 1
@.str.3 = private unnamed_addr constant [33 x i8] c"x1=%.5lf+%.5lfi;x2=%.5lf-%.5lfi\0A\00", align 1
@.str.4 = private unnamed_addr constant [13 x i8] c"x1=x2=%.5lf\0A\00", align 1
@.str.5 = private unnamed_addr constant [35 x i8] c"x1=0.00000+%.5lf;x2=0.00000+%.5lf\0A\00", align 1
@.str.6 = private unnamed_addr constant [37 x i8] c"x1=0.00000+%.5lfi;x2=0.00000-%.5lfi\0A\00", align 1
@.str.7 = private unnamed_addr constant [15 x i8] c"x1=x2=0.00000\0A\00", align 1

; Function Attrs: noinline nounwind uwtable
define dso_local i32 @main(i32 %0, i8** %1) #0 {
  %3 = alloca i32, align 4
  %4 = alloca i32, align 4
  %5 = alloca i8**, align 8
  %6 = alloca i32, align 4
  %7 = alloca i32, align 4
  %8 = alloca [100 x double], align 16
  %9 = alloca [100 x double], align 16
  %10 = alloca [100 x double], align 16
  %11 = alloca double, align 8
  %12 = alloca double, align 8
  %13 = alloca double, align 8
  %14 = alloca double, align 8
  %15 = alloca double, align 8
  store i32 0, i32* %3, align 4
  store i32 %0, i32* %4, align 4
  store i8** %1, i8*** %5, align 8
  %16 = call i32 (i8*, ...) @__isoc99_scanf(i8* getelementptr inbounds ([3 x i8], [3 x i8]* @.str, i64 0, i64 0), i32* %7)
  store i32 0, i32* %6, align 4
  br label %17

17:                                               ; preds = %32, %2
  %18 = load i32, i32* %6, align 4
  %19 = load i32, i32* %7, align 4
  %20 = icmp slt i32 %18, %19
  br i1 %20, label %21, label %35

21:                                               ; preds = %17
  %22 = load i32, i32* %6, align 4
  %23 = sext i32 %22 to i64
  %24 = getelementptr inbounds [100 x double], [100 x double]* %8, i64 0, i64 %23
  %25 = load i32, i32* %6, align 4
  %26 = sext i32 %25 to i64
  %27 = getelementptr inbounds [100 x double], [100 x double]* %9, i64 0, i64 %26
  %28 = load i32, i32* %6, align 4
  %29 = sext i32 %28 to i64
  %30 = getelementptr inbounds [100 x double], [100 x double]* %10, i64 0, i64 %29
  %31 = call i32 (i8*, ...) @__isoc99_scanf(i8* getelementptr inbounds ([12 x i8], [12 x i8]* @.str.1, i64 0, i64 0), double* %24, double* %27, double* %30)
  br label %32

32:                                               ; preds = %21
  %33 = load i32, i32* %6, align 4
  %34 = add nsw i32 %33, 1
  store i32 %34, i32* %6, align 4
  br label %17

35:                                               ; preds = %17
  store i32 0, i32* %6, align 4
  br label %36

36:                                               ; preds = %297, %35
  %37 = load i32, i32* %6, align 4
  %38 = load i32, i32* %7, align 4
  %39 = icmp slt i32 %37, %38
  br i1 %39, label %40, label %300

40:                                               ; preds = %36
  %41 = load i32, i32* %6, align 4
  %42 = sext i32 %41 to i64
  %43 = getelementptr inbounds [100 x double], [100 x double]* %9, i64 0, i64 %42
  %44 = load double, double* %43, align 8
  %45 = fdiv double %44, 2.000000e+00
  %46 = load i32, i32* %6, align 4
  %47 = sext i32 %46 to i64
  %48 = getelementptr inbounds [100 x double], [100 x double]* %8, i64 0, i64 %47
  %49 = load double, double* %48, align 8
  %50 = fdiv double %45, %49
  %51 = fneg double %50
  store double %51, double* %14, align 8
  %52 = load i32, i32* %6, align 4
  %53 = sext i32 %52 to i64
  %54 = getelementptr inbounds [100 x double], [100 x double]* %9, i64 0, i64 %53
  %55 = load double, double* %54, align 8
  %56 = load i32, i32* %6, align 4
  %57 = sext i32 %56 to i64
  %58 = getelementptr inbounds [100 x double], [100 x double]* %9, i64 0, i64 %57
  %59 = load double, double* %58, align 8
  %60 = fmul double %55, %59
  %61 = load i32, i32* %6, align 4
  %62 = sext i32 %61 to i64
  %63 = getelementptr inbounds [100 x double], [100 x double]* %8, i64 0, i64 %62
  %64 = load double, double* %63, align 8
  %65 = fmul double 4.000000e+00, %64
  %66 = load i32, i32* %6, align 4
  %67 = sext i32 %66 to i64
  %68 = getelementptr inbounds [100 x double], [100 x double]* %10, i64 0, i64 %67
  %69 = load double, double* %68, align 8
  %70 = fmul double %65, %69
  %71 = fsub double %60, %70
  %72 = call double @sqrt(double %71) #3
  %73 = load i32, i32* %6, align 4
  %74 = sext i32 %73 to i64
  %75 = getelementptr inbounds [100 x double], [100 x double]* %8, i64 0, i64 %74
  %76 = load double, double* %75, align 8
  %77 = fmul double 2.000000e+00, %76
  %78 = fdiv double %72, %77
  store double %78, double* %15, align 8
  %79 = load i32, i32* %6, align 4
  %80 = sext i32 %79 to i64
  %81 = getelementptr inbounds [100 x double], [100 x double]* %9, i64 0, i64 %80
  %82 = load double, double* %81, align 8
  %83 = fcmp une double %82, 0.000000e+00
  br i1 %83, label %84, label %201

84:                                               ; preds = %40
  %85 = load i32, i32* %6, align 4
  %86 = sext i32 %85 to i64
  %87 = getelementptr inbounds [100 x double], [100 x double]* %9, i64 0, i64 %86
  %88 = load double, double* %87, align 8
  %89 = load i32, i32* %6, align 4
  %90 = sext i32 %89 to i64
  %91 = getelementptr inbounds [100 x double], [100 x double]* %9, i64 0, i64 %90
  %92 = load double, double* %91, align 8
  %93 = fmul double %88, %92
  %94 = load i32, i32* %6, align 4
  %95 = sext i32 %94 to i64
  %96 = getelementptr inbounds [100 x double], [100 x double]* %8, i64 0, i64 %95
  %97 = load double, double* %96, align 8
  %98 = fmul double 4.000000e+00, %97
  %99 = load i32, i32* %6, align 4
  %100 = sext i32 %99 to i64
  %101 = getelementptr inbounds [100 x double], [100 x double]* %10, i64 0, i64 %100
  %102 = load double, double* %101, align 8
  %103 = fmul double %98, %102
  %104 = fsub double %93, %103
  %105 = fcmp ogt double %104, 0.000000e+00
  br i1 %105, label %106, label %116

106:                                              ; preds = %84
  %107 = load double, double* %14, align 8
  %108 = load double, double* %15, align 8
  %109 = fadd double %107, %108
  store double %109, double* %12, align 8
  %110 = load double, double* %14, align 8
  %111 = load double, double* %15, align 8
  %112 = fsub double %110, %111
  store double %112, double* %13, align 8
  %113 = load double, double* %12, align 8
  %114 = load double, double* %13, align 8
  %115 = call i32 (i8*, ...) @printf(i8* getelementptr inbounds ([19 x i8], [19 x i8]* @.str.2, i64 0, i64 0), double %113, double %114)
  br label %116

116:                                              ; preds = %106, %84
  %117 = load i32, i32* %6, align 4
  %118 = sext i32 %117 to i64
  %119 = getelementptr inbounds [100 x double], [100 x double]* %9, i64 0, i64 %118
  %120 = load double, double* %119, align 8
  %121 = load i32, i32* %6, align 4
  %122 = sext i32 %121 to i64
  %123 = getelementptr inbounds [100 x double], [100 x double]* %9, i64 0, i64 %122
  %124 = load double, double* %123, align 8
  %125 = fmul double %120, %124
  %126 = load i32, i32* %6, align 4
  %127 = sext i32 %126 to i64
  %128 = getelementptr inbounds [100 x double], [100 x double]* %8, i64 0, i64 %127
  %129 = load double, double* %128, align 8
  %130 = fmul double 4.000000e+00, %129
  %131 = load i32, i32* %6, align 4
  %132 = sext i32 %131 to i64
  %133 = getelementptr inbounds [100 x double], [100 x double]* %10, i64 0, i64 %132
  %134 = load double, double* %133, align 8
  %135 = fmul double %130, %134
  %136 = fsub double %125, %135
  %137 = fcmp olt double %136, 0.000000e+00
  br i1 %137, label %138, label %172

138:                                              ; preds = %116
  %139 = load i32, i32* %6, align 4
  %140 = sext i32 %139 to i64
  %141 = getelementptr inbounds [100 x double], [100 x double]* %9, i64 0, i64 %140
  %142 = load double, double* %141, align 8
  %143 = fneg double %142
  %144 = load i32, i32* %6, align 4
  %145 = sext i32 %144 to i64
  %146 = getelementptr inbounds [100 x double], [100 x double]* %9, i64 0, i64 %145
  %147 = load double, double* %146, align 8
  %148 = fmul double %143, %147
  %149 = load i32, i32* %6, align 4
  %150 = sext i32 %149 to i64
  %151 = getelementptr inbounds [100 x double], [100 x double]* %8, i64 0, i64 %150
  %152 = load double, double* %151, align 8
  %153 = fmul double 4.000000e+00, %152
  %154 = load i32, i32* %6, align 4
  %155 = sext i32 %154 to i64
  %156 = getelementptr inbounds [100 x double], [100 x double]* %10, i64 0, i64 %155
  %157 = load double, double* %156, align 8
  %158 = fmul double %153, %157
  %159 = fadd double %148, %158
  %160 = call double @sqrt(double %159) #3
  %161 = load i32, i32* %6, align 4
  %162 = sext i32 %161 to i64
  %163 = getelementptr inbounds [100 x double], [100 x double]* %8, i64 0, i64 %162
  %164 = load double, double* %163, align 8
  %165 = fmul double 2.000000e+00, %164
  %166 = fdiv double %160, %165
  store double %166, double* %11, align 8
  %167 = load double, double* %14, align 8
  %168 = load double, double* %11, align 8
  %169 = load double, double* %14, align 8
  %170 = load double, double* %11, align 8
  %171 = call i32 (i8*, ...) @printf(i8* getelementptr inbounds ([33 x i8], [33 x i8]* @.str.3, i64 0, i64 0), double %167, double %168, double %169, double %170)
  br label %172

172:                                              ; preds = %138, %116
  %173 = load i32, i32* %6, align 4
  %174 = sext i32 %173 to i64
  %175 = getelementptr inbounds [100 x double], [100 x double]* %9, i64 0, i64 %174
  %176 = load double, double* %175, align 8
  %177 = load i32, i32* %6, align 4
  %178 = sext i32 %177 to i64
  %179 = getelementptr inbounds [100 x double], [100 x double]* %9, i64 0, i64 %178
  %180 = load double, double* %179, align 8
  %181 = fmul double %176, %180
  %182 = load i32, i32* %6, align 4
  %183 = sext i32 %182 to i64
  %184 = getelementptr inbounds [100 x double], [100 x double]* %8, i64 0, i64 %183
  %185 = load double, double* %184, align 8
  %186 = fmul double 4.000000e+00, %185
  %187 = load i32, i32* %6, align 4
  %188 = sext i32 %187 to i64
  %189 = getelementptr inbounds [100 x double], [100 x double]* %10, i64 0, i64 %188
  %190 = load double, double* %189, align 8
  %191 = fmul double %186, %190
  %192 = fsub double %181, %191
  %193 = fcmp oeq double %192, 0.000000e+00
  br i1 %193, label %194, label %200

194:                                              ; preds = %172
  %195 = load double, double* %14, align 8
  store double %195, double* %12, align 8
  %196 = load double, double* %14, align 8
  store double %196, double* %13, align 8
  %197 = load double, double* %14, align 8
  %198 = load double, double* %14, align 8
  %199 = call i32 (i8*, ...) @printf(i8* getelementptr inbounds ([13 x i8], [13 x i8]* @.str.4, i64 0, i64 0), double %197, double %198)
  br label %200

200:                                              ; preds = %194, %172
  br label %201

201:                                              ; preds = %200, %40
  %202 = load i32, i32* %6, align 4
  %203 = sext i32 %202 to i64
  %204 = getelementptr inbounds [100 x double], [100 x double]* %9, i64 0, i64 %203
  %205 = load double, double* %204, align 8
  %206 = fcmp oeq double %205, 0.000000e+00
  br i1 %206, label %207, label %296

207:                                              ; preds = %201
  %208 = load i32, i32* %6, align 4
  %209 = sext i32 %208 to i64
  %210 = getelementptr inbounds [100 x double], [100 x double]* %9, i64 0, i64 %209
  %211 = load double, double* %210, align 8
  %212 = load i32, i32* %6, align 4
  %213 = sext i32 %212 to i64
  %214 = getelementptr inbounds [100 x double], [100 x double]* %9, i64 0, i64 %213
  %215 = load double, double* %214, align 8
  %216 = fmul double %211, %215
  %217 = load i32, i32* %6, align 4
  %218 = sext i32 %217 to i64
  %219 = getelementptr inbounds [100 x double], [100 x double]* %8, i64 0, i64 %218
  %220 = load double, double* %219, align 8
  %221 = fmul double 4.000000e+00, %220
  %222 = load i32, i32* %6, align 4
  %223 = sext i32 %222 to i64
  %224 = getelementptr inbounds [100 x double], [100 x double]* %10, i64 0, i64 %223
  %225 = load double, double* %224, align 8
  %226 = fmul double %221, %225
  %227 = fsub double %216, %226
  %228 = fcmp ogt double %227, 0.000000e+00
  br i1 %228, label %229, label %236

229:                                              ; preds = %207
  %230 = load double, double* %15, align 8
  store double %230, double* %12, align 8
  %231 = load double, double* %15, align 8
  %232 = fneg double %231
  store double %232, double* %13, align 8
  %233 = load double, double* %12, align 8
  %234 = load double, double* %13, align 8
  %235 = call i32 (i8*, ...) @printf(i8* getelementptr inbounds ([35 x i8], [35 x i8]* @.str.5, i64 0, i64 0), double %233, double %234)
  br label %236

236:                                              ; preds = %229, %207
  %237 = load i32, i32* %6, align 4
  %238 = sext i32 %237 to i64
  %239 = getelementptr inbounds [100 x double], [100 x double]* %9, i64 0, i64 %238
  %240 = load double, double* %239, align 8
  %241 = load i32, i32* %6, align 4
  %242 = sext i32 %241 to i64
  %243 = getelementptr inbounds [100 x double], [100 x double]* %9, i64 0, i64 %242
  %244 = load double, double* %243, align 8
  %245 = fmul double %240, %244
  %246 = load i32, i32* %6, align 4
  %247 = sext i32 %246 to i64
  %248 = getelementptr inbounds [100 x double], [100 x double]* %8, i64 0, i64 %247
  %249 = load double, double* %248, align 8
  %250 = fmul double 4.000000e+00, %249
  %251 = load i32, i32* %6, align 4
  %252 = sext i32 %251 to i64
  %253 = getelementptr inbounds [100 x double], [100 x double]* %10, i64 0, i64 %252
  %254 = load double, double* %253, align 8
  %255 = fmul double %250, %254
  %256 = fsub double %245, %255
  %257 = fcmp olt double %256, 0.000000e+00
  br i1 %257, label %258, label %279

258:                                              ; preds = %236
  %259 = load i32, i32* %6, align 4
  %260 = sext i32 %259 to i64
  %261 = getelementptr inbounds [100 x double], [100 x double]* %8, i64 0, i64 %260
  %262 = load double, double* %261, align 8
  %263 = fmul double 4.000000e+00, %262
  %264 = load i32, i32* %6, align 4
  %265 = sext i32 %264 to i64
  %266 = getelementptr inbounds [100 x double], [100 x double]* %10, i64 0, i64 %265
  %267 = load double, double* %266, align 8
  %268 = fmul double %263, %267
  %269 = call double @sqrt(double %268) #3
  %270 = load i32, i32* %6, align 4
  %271 = sext i32 %270 to i64
  %272 = getelementptr inbounds [100 x double], [100 x double]* %8, i64 0, i64 %271
  %273 = load double, double* %272, align 8
  %274 = fmul double 2.000000e+00, %273
  %275 = fdiv double %269, %274
  store double %275, double* %11, align 8
  %276 = load double, double* %11, align 8
  %277 = load double, double* %11, align 8
  %278 = call i32 (i8*, ...) @printf(i8* getelementptr inbounds ([37 x i8], [37 x i8]* @.str.6, i64 0, i64 0), double %276, double %277)
  br label %279

279:                                              ; preds = %258, %236
  %280 = load i32, i32* %6, align 4
  %281 = sext i32 %280 to i64
  %282 = getelementptr inbounds [100 x double], [100 x double]* %8, i64 0, i64 %281
  %283 = load double, double* %282, align 8
  %284 = fmul double -4.000000e+00, %283
  %285 = load i32, i32* %6, align 4
  %286 = sext i32 %285 to i64
  %287 = getelementptr inbounds [100 x double], [100 x double]* %10, i64 0, i64 %286
  %288 = load double, double* %287, align 8
  %289 = fmul double %284, %288
  %290 = fcmp oeq double %289, 0.000000e+00
  br i1 %290, label %291, label %295

291:                                              ; preds = %279
  %292 = load double, double* %14, align 8
  store double %292, double* %12, align 8
  %293 = load double, double* %14, align 8
  store double %293, double* %13, align 8
  %294 = call i32 (i8*, ...) @printf(i8* getelementptr inbounds ([15 x i8], [15 x i8]* @.str.7, i64 0, i64 0))
  br label %295

295:                                              ; preds = %291, %279
  br label %296

296:                                              ; preds = %295, %201
  br label %297

297:                                              ; preds = %296
  %298 = load i32, i32* %6, align 4
  %299 = add nsw i32 %298, 1
  store i32 %299, i32* %6, align 4
  br label %36

300:                                              ; preds = %36
  ret i32 0
}